target datalayout = "e-m:e-p270:32:32-p271:32:32-p272:64:64-i64:64-i128:128-f80:128-n8:16:32:64-S128"
target triple = "x86_64-pc-linux-gnu"

%struct.slurm_conf_t = type { i64, ptr, i16, ptr, ptr, ptr, ptr, ptr, i16, ptr, ptr, ptr, ptr, ptr, ptr, ptr, i16, ptr, ptr, ptr, ptr, i16, ptr, ptr, ptr, i64, ptr, ptr, ptr, ptr, i16, ptr, ptr, i16, i32, ptr, i32, ptr, i32, i32, ptr, ptr, i64, i64, ptr, i16, i16, ptr, i32, i32, ptr, i32, ptr, i32, i16, i16, i16, ptr, i16, i16, ptr, ptr, i32, i16, i16, ptr, i32, i16, ptr, ptr, ptr, ptr, i16, ptr, ptr, ptr, ptr, i32, ptr, ptr, ptr, ptr, i16, i16, ptr, i32, i32, i32, i16, i16, ptr, ptr, i16, ptr, ptr, i32, i32, i32, i32, i32, i64, i32, i32, i16, ptr, ptr, i32, ptr, ptr, ptr, i16, i32, ptr, ptr, i16, ptr, ptr, i32, i16, ptr, ptr, ptr, ptr, i32, i32, i16, i16, i32, ptr, i16, ptr, i32, i32, i32, i32, i32, i32, ptr, i16, ptr, ptr, i32, i16, ptr, i32, i16, i16, ptr, ptr, ptr, i16, ptr, ptr, ptr, ptr, i16, i16, ptr, i16, ptr, i16, ptr, i16, ptr, i16, ptr, ptr, ptr, ptr, i16, ptr, ptr, ptr, i32, ptr, i32, ptr, ptr, i16, ptr, ptr, i32, i16, ptr, ptr, i16, i16, ptr, i16, ptr, ptr, ptr, i32, ptr, i16, i16, ptr, ptr, ptr, ptr, ptr, ptr, ptr, ptr, i16, i32, i16, ptr, ptr, ptr, ptr, i32, ptr, ptr, ptr, i16, ptr, ptr, ptr, i16, ptr, i16, ptr, i16, i16, ptr }
%union.pthread_mutex_t = type { %struct.__pthread_mutex_s }
%struct.__pthread_mutex_s = type { i32, i32, i32, i32, i32, i16, i16, %struct.__pthread_internal_list }
%struct.__pthread_internal_list = type { ptr, ptr }
%union.pthread_cond_t = type { %struct.__pthread_cond_s }
%struct.__pthread_cond_s = type { %union.__atomic_wide_counter, %union.__atomic_wide_counter, [2 x i32], [2 x i32], i32, i32, [2 x i32] }
%union.__atomic_wide_counter = type { i64 }

@plugin_type = dso_local constant [22 x i8] c"jobcomp/elasticsearch\00", align 16
@log_url = dso_local global ptr null, align 8
@.str.2 = private unnamed_addr constant [24 x i8] c"jobcomp_elasticsearch.c\00", align 1
@slurm_conf = external global %struct.slurm_conf_t, align 8
@location_mutex = internal global %union.pthread_mutex_t zeroinitializer, align 8
@.str.5 = private unnamed_addr constant [29 x i8] c"%s: pthread_mutex_lock(): %m\00", align 1
@location_cond = internal global %union.pthread_cond_t zeroinitializer, align 8
@.str.7 = private unnamed_addr constant [31 x i8] c"%s: pthread_mutex_unlock(): %m\00", align 1
@.str.17 = private unnamed_addr constant [40 x i8] c"%s: JobCompLoc parameter not configured\00", align 1
@__func__.jobcomp_p_set_location = private unnamed_addr constant [23 x i8] c"jobcomp_p_set_location\00", align 1
@.str.18 = private unnamed_addr constant [39 x i8] c"%s:%d %s: pthread_cond_broadcast(): %m\00", align 1

; Function Attrs: nounwind uwtable
define dso_local i32 @jobcomp_p_set_location() #0 {
  %1 = alloca i32, align 4
  %2 = alloca ptr, align 8
  %3 = alloca i32, align 4
  %4 = alloca i32, align 4
  %5 = alloca i32, align 4
  %6 = alloca i32, align 4
  %7 = alloca i32, align 4
  call void @llvm.lifetime.start.p0(i64 8, ptr %2) #8
  %8 = load ptr, ptr getelementptr inbounds nuw (%struct.slurm_conf_t, ptr @slurm_conf, i32 0, i32 74), align 8
  store ptr %8, ptr %2, align 8
  call void @llvm.lifetime.start.p0(i64 4, ptr %3) #8
  store i32 0, ptr %3, align 4
  %9 = load ptr, ptr %2, align 8
  %10 = icmp eq ptr %9, null
  br i1 %10, label %11, label %13

11:                                               ; preds = %0
  %12 = call i32 (ptr, ...) @slurm_error(ptr noundef @.str.17, ptr noundef @plugin_type)
  store i32 -1, ptr %1, align 4
  store i32 1, ptr %4, align 4
  br label %52

13:                                               ; preds = %0
  br label %14

14:                                               ; preds = %13
  call void @llvm.lifetime.start.p0(i64 4, ptr %5) #8
  %15 = call i32 @pthread_mutex_lock(ptr noundef @location_mutex) #8
  store i32 %15, ptr %5, align 4
  %16 = load i32, ptr %5, align 4
  %17 = icmp ne i32 %16, 0
  br i1 %17, label %18, label %21

18:                                               ; preds = %14
  %19 = load i32, ptr %5, align 4
  %20 = call ptr @__errno_location() #9
  store i32 %19, ptr %20, align 4
  call void (ptr, ...) @slurm_fatal_abort(ptr noundef @.str.5, ptr noundef @__func__.jobcomp_p_set_location) #10
  unreachable

21:                                               ; preds = %14
  call void @llvm.lifetime.end.p0(i64 4, ptr %5) #8
  br label %22

22:                                               ; preds = %21
  br label %23

23:                                               ; preds = %22
  %24 = load ptr, ptr @log_url, align 8
  %25 = icmp ne ptr %24, null
  br i1 %25, label %26, label %27

26:                                               ; preds = %23
  call void @slurm_xfree(ptr noundef @log_url)
  br label %27

27:                                               ; preds = %26, %23
  %28 = load ptr, ptr %2, align 8
  %29 = call ptr @slurm_xstrdup(ptr noundef %28)
  store ptr %29, ptr @log_url, align 8
  br label %30

30:                                               ; preds = %27
  call void @llvm.lifetime.start.p0(i64 4, ptr %6) #8
  %31 = call i32 @pthread_cond_broadcast(ptr noundef @location_cond) #8
  store i32 %31, ptr %6, align 4
  %32 = load i32, ptr %6, align 4
  %33 = icmp ne i32 %32, 0
  br i1 %33, label %34, label %38

34:                                               ; preds = %30
  %35 = load i32, ptr %6, align 4
  %36 = call ptr @__errno_location() #9
  store i32 %35, ptr %36, align 4
  %37 = call i32 (ptr, ...) @slurm_error(ptr noundef @.str.18, ptr noundef @.str.2, i32 noundef 388, ptr noundef @__func__.jobcomp_p_set_location)
  br label %38

38:                                               ; preds = %34, %30
  call void @llvm.lifetime.end.p0(i64 4, ptr %6) #8
  br label %39

39:                                               ; preds = %38
  br label %40

40:                                               ; preds = %39
  br label %41

41:                                               ; preds = %40
  call void @llvm.lifetime.start.p0(i64 4, ptr %7) #8
  %42 = call i32 @pthread_mutex_unlock(ptr noundef @location_mutex) #8
  store i32 %42, ptr %7, align 4
  %43 = load i32, ptr %7, align 4
  %44 = icmp ne i32 %43, 0
  br i1 %44, label %45, label %48

45:                                               ; preds = %41
  %46 = load i32, ptr %7, align 4
  %47 = call ptr @__errno_location() #9
  store i32 %46, ptr %47, align 4
  call void (ptr, ...) @slurm_fatal_abort(ptr noundef @.str.7, ptr noundef @__func__.jobcomp_p_set_location) #10
  unreachable

48:                                               ; preds = %41
  call void @llvm.lifetime.end.p0(i64 4, ptr %7) #8
  br label %49

49:                                               ; preds = %48
  br label %50

50:                                               ; preds = %49
  %51 = load i32, ptr %3, align 4
  store i32 %51, ptr %1, align 4
  store i32 1, ptr %4, align 4
  br label %52

52:                                               ; preds = %50, %11
  call void @llvm.lifetime.end.p0(i64 4, ptr %3) #8
  call void @llvm.lifetime.end.p0(i64 8, ptr %2) #8
  %53 = load i32, ptr %1, align 4
  ret i32 %53
}