; Function Attrs: nounwind uwtable
define dso_local range(i32 -1, 1) i32 @jobcomp_p_set_location() local_unnamed_addr #0 {
  %1 = load ptr, ptr getelementptr inbounds nuw (i8, ptr @slurm_conf, i64 512), align 8
  %2 = icmp eq ptr %1, null
  br i1 %2, label %3, label %5

3:                                                ; preds = %0
  %4 = tail call i32 (ptr, ...) @slurm_error(ptr noundef nonnull @.str.17, ptr noundef nonnull @plugin_type) #7
  br label %22

5:                                                ; preds = %0
  %6 = tail call i32 @pthread_mutex_lock(ptr noundef nonnull @location_mutex) #7
  %.not = icmp eq i32 %6, 0
  br i1 %.not, label %9, label %7

7:                                                ; preds = %5
  %8 = tail call ptr @__errno_location() #8
  store i32 %6, ptr %8, align 4
  tail call void (ptr, ...) @slurm_fatal_abort(ptr noundef nonnull @.str.5, ptr noundef nonnull @__func__.jobcomp_p_set_location) #9
  unreachable

9:                                                ; preds = %5
  %10 = load ptr, ptr @log_url, align 8
  %.not13 = icmp eq ptr %10, null
  br i1 %.not13, label %12, label %11

11:                                               ; preds = %9
  tail call void @slurm_xfree(ptr noundef nonnull @log_url) #7
  br label %12

12:                                               ; preds = %11, %9
  %13 = tail call ptr @slurm_xstrdup(ptr noundef nonnull %1) #7
  store ptr %13, ptr @log_url, align 8
  %14 = tail call i32 @pthread_cond_broadcast(ptr noundef nonnull @location_cond) #7
  %.not14 = icmp eq i32 %14, 0
  br i1 %.not14, label %18, label %15

15:                                               ; preds = %12
  %16 = tail call ptr @__errno_location() #8
  store i32 %14, ptr %16, align 4
  %17 = tail call i32 (ptr, ...) @slurm_error(ptr noundef nonnull @.str.18, ptr noundef nonnull @.str.2, i32 noundef 388, ptr noundef nonnull @__func__.jobcomp_p_set_location) #7
  br label %18

18:                                               ; preds = %15, %12
  %19 = tail call i32 @pthread_mutex_unlock(ptr noundef nonnull @location_mutex) #7
  %.not15 = icmp eq i32 %19, 0
  br i1 %.not15, label %22, label %20

20:                                               ; preds = %18
  %21 = tail call ptr @__errno_location() #8
  store i32 %19, ptr %21, align 4
  tail call void (ptr, ...) @slurm_fatal_abort(ptr noundef nonnull @.str.7, ptr noundef nonnull @__func__.jobcomp_p_set_location) #9
  unreachable

22:                                               ; preds = %18, %3
  %.0 = phi i32 [ -1, %3 ], [ 0, %18 ]
  ret i32 %.0
}